target datalayout = "e-m:e-p270:32:32-p271:32:32-p272:64:64-i64:64-i128:128-f80:128-n8:16:32:64-S128"
target triple = "x86_64-pc-linux-gnu"

; Function Attrs: nounwind uwtable
define internal i32 @BitsLog2Floor(i32 noundef %0) #0 {
  %2 = alloca i32, align 4
  store i32 %0, ptr %2, align 4
  %3 = load i32, ptr %2, align 4
  %4 = call i32 @llvm.ctlz.i32(i32 %3, i1 true)
  %5 = xor i32 31, %4
  ret i32 %5
}

; Function Attrs: nounwind uwtable
define internal float @FastLog2Slow_C(i32 noundef %0) #0 {
  %2 = alloca float, align 4
  %3 = alloca i32, align 4
  %4 = alloca i32, align 4
  %5 = alloca i32, align 4
  %6 = alloca i32, align 4
  %7 = alloca double, align 8
  %8 = alloca i32, align 4
  store i32 %0, ptr %3, align 4
  %9 = load i32, ptr %3, align 4
  %10 = icmp ult i32 %9, 65536
  br i1 %10, label %11, label %48

11:                                               ; preds = %1
  %12 = load i32, ptr %3, align 4
  %13 = call i32 @BitsLog2Floor(i32 noundef %12)
  %14 = sub nsw i32 %13, 7
  store i32 %14, ptr %4, align 4
  %15 = load i32, ptr %4, align 4
  %16 = shl i32 1, %15
  store i32 %16, ptr %5, align 4
  %17 = load i32, ptr %3, align 4
  store i32 %17, ptr %6, align 4
  %18 = load i32, ptr %4, align 4
  %19 = load i32, ptr %3, align 4
  %20 = lshr i32 %19, %18
  store i32 %20, ptr %3, align 4
  %21 = load i32, ptr %3, align 4
  %22 = zext i32 %21 to i64
  %23 = getelementptr inbounds [256 x float], ptr @kLog2Table, i64 0, i64 %22
  %24 = load float, ptr %23, align 4
  %25 = load i32, ptr %4, align 4
  %26 = sitofp i32 %25 to float
  %27 = fadd float %24, %26
  %28 = fpext float %27 to double
  store double %28, ptr %7, align 8
  %29 = load i32, ptr %6, align 4
  %30 = icmp uge i32 %29, 4096
  br i1 %30, label %31, label %45

31:                                               ; preds = %11
  %32 = load i32, ptr %6, align 4
  %33 = load i32, ptr %5, align 4
  %34 = sub i32 %33, 1
  %35 = and i32 %32, %34
  %36 = mul i32 23, %35
  %37 = lshr i32 %36, 4
  store i32 %37, ptr %8, align 4
  %38 = load i32, ptr %8, align 4
  %39 = sitofp i32 %38 to double
  %40 = load i32, ptr %6, align 4
  %41 = uitofp i32 %40 to double
  %42 = fdiv double %39, %41
  %43 = load double, ptr %7, align 8
  %44 = fadd double %43, %42
  store double %44, ptr %7, align 8
  br label %45

45:                                               ; preds = %31, %11
  %46 = load double, ptr %7, align 8
  %47 = fptrunc double %46 to float
  store float %47, ptr %2, align 4
  br label %54

48:                                               ; preds = %1
  %49 = load i32, ptr %3, align 4
  %50 = uitofp i32 %49 to double
  %51 = call double @log(double noundef %50) #6
  %52 = fmul double 0x3FF71547652B82FE, %51
  %53 = fptrunc double %52 to float
  store float %53, ptr %2, align 4
  br label %54

54:                                               ; preds = %48, %45
  %55 = load float, ptr %2, align 4
  ret float %55
}