; Function Attrs: mustprogress nofree nounwind willreturn memory(write) uwtable
define internal float @FastLog2Slow_C(i32 noundef %0) #8 {
  %2 = icmp ult i32 %0, 65536
  br i1 %2, label %3, label %24

3:                                                ; preds = %1
  %4 = tail call range(i32 0, 33) i32 @llvm.ctlz.i32(i32 %0, i1 true)
  %5 = sub nsw i32 24, %4
  %6 = lshr i32 %0, %5
  %7 = zext nneg i32 %6 to i64
  %8 = getelementptr inbounds [256 x float], ptr @kLog2Table, i64 0, i64 %7
  %9 = load float, ptr %8, align 4
  %10 = sitofp i32 %5 to float
  %11 = fadd float %9, %10
  %12 = icmp ugt i32 %0, 4095
  br i1 %12, label %13, label %29

13:                                               ; preds = %3
  %14 = fpext float %11 to double
  %notmask = shl nsw i32 -1, %5
  %15 = xor i32 %notmask, -1
  %16 = and i32 %15, %0
  %17 = mul nuw nsw i32 %16, 23
  %18 = lshr i32 %17, 4
  %19 = uitofp nneg i32 %18 to double
  %20 = uitofp nneg i32 %0 to double
  %21 = fdiv double %19, %20
  %22 = fadd double %21, %14
  %23 = fptrunc double %22 to float
  br label %29

24:                                               ; preds = %1
  %25 = uitofp i32 %0 to double
  %26 = tail call double @log(double noundef %25) #12
  %27 = fmul double %26, 0x3FF71547652B82FE
  %28 = fptrunc double %27 to float
  br label %29

29:                                               ; preds = %3, %13, %24
  %.0 = phi float [ %28, %24 ], [ %23, %13 ], [ %11, %3 ]
  ret float %.0
}